target datalayout = "e-m:e-p270:32:32-p271:32:32-p272:64:64-i64:64-i128:128-f80:128-n8:16:32:64-S128"
target triple = "x86_64-pc-linux-gnu"

; Function Attrs: nounwind uwtable
define dso_local void @ossl_quic_vlint_encode_n(ptr noundef %0, i64 noundef %1, i32 noundef %2) #0 {
  %4 = alloca ptr, align 8
  %5 = alloca i64, align 8
  %6 = alloca i32, align 4
  store ptr %0, ptr %4, align 8, !tbaa !4
  store i64 %1, ptr %5, align 8, !tbaa !9
  store i32 %2, ptr %6, align 4, !tbaa !11
  %7 = load i32, ptr %6, align 4, !tbaa !11
  %8 = icmp eq i32 %7, 1
  br i1 %8, label %9, label %14

9:                                                ; preds = %3
  %10 = load i64, ptr %5, align 8, !tbaa !9
  %11 = trunc i64 %10 to i8
  %12 = load ptr, ptr %4, align 8, !tbaa !4
  %13 = getelementptr inbounds i8, ptr %12, i64 0
  store i8 %11, ptr %13, align 1, !tbaa !13
  br label %98

14:                                               ; preds = %3
  %15 = load i32, ptr %6, align 4, !tbaa !11
  %16 = icmp eq i32 %15, 2
  br i1 %16, label %17, label %29

17:                                               ; preds = %14
  %18 = load i64, ptr %5, align 8, !tbaa !9
  %19 = lshr i64 %18, 8
  %20 = and i64 %19, 63
  %21 = or i64 64, %20
  %22 = trunc i64 %21 to i8
  %23 = load ptr, ptr %4, align 8, !tbaa !4
  %24 = getelementptr inbounds i8, ptr %23, i64 0
  store i8 %22, ptr %24, align 1, !tbaa !13
  %25 = load i64, ptr %5, align 8, !tbaa !9
  %26 = trunc i64 %25 to i8
  %27 = load ptr, ptr %4, align 8, !tbaa !4
  %28 = getelementptr inbounds i8, ptr %27, i64 1
  store i8 %26, ptr %28, align 1, !tbaa !13
  br label %97

29:                                               ; preds = %14
  %30 = load i32, ptr %6, align 4, !tbaa !11
  %31 = icmp eq i32 %30, 4
  br i1 %31, label %32, label %54

32:                                               ; preds = %29
  %33 = load i64, ptr %5, align 8, !tbaa !9
  %34 = lshr i64 %33, 24
  %35 = and i64 %34, 63
  %36 = or i64 128, %35
  %37 = trunc i64 %36 to i8
  %38 = load ptr, ptr %4, align 8, !tbaa !4
  %39 = getelementptr inbounds i8, ptr %38, i64 0
  store i8 %37, ptr %39, align 1, !tbaa !13
  %40 = load i64, ptr %5, align 8, !tbaa !9
  %41 = lshr i64 %40, 16
  %42 = trunc i64 %41 to i8
  %43 = load ptr, ptr %4, align 8, !tbaa !4
  %44 = getelementptr inbounds i8, ptr %43, i64 1
  store i8 %42, ptr %44, align 1, !tbaa !13
  %45 = load i64, ptr %5, align 8, !tbaa !9
  %46 = lshr i64 %45, 8
  %47 = trunc i64 %46 to i8
  %48 = load ptr, ptr %4, align 8, !tbaa !4
  %49 = getelementptr inbounds i8, ptr %48, i64 2
  store i8 %47, ptr %49, align 1, !tbaa !13
  %50 = load i64, ptr %5, align 8, !tbaa !9
  %51 = trunc i64 %50 to i8
  %52 = load ptr, ptr %4, align 8, !tbaa !4
  %53 = getelementptr inbounds i8, ptr %52, i64 3
  store i8 %51, ptr %53, align 1, !tbaa !13
  br label %96

54:                                               ; preds = %29
  %55 = load i64, ptr %5, align 8, !tbaa !9
  %56 = lshr i64 %55, 56
  %57 = and i64 %56, 63
  %58 = or i64 192, %57
  %59 = trunc i64 %58 to i8
  %60 = load ptr, ptr %4, align 8, !tbaa !4
  %61 = getelementptr inbounds i8, ptr %60, i64 0
  store i8 %59, ptr %61, align 1, !tbaa !13
  %62 = load i64, ptr %5, align 8, !tbaa !9
  %63 = lshr i64 %62, 48
  %64 = trunc i64 %63 to i8
  %65 = load ptr, ptr %4, align 8, !tbaa !4
  %66 = getelementptr inbounds i8, ptr %65, i64 1
  store i8 %64, ptr %66, align 1, !tbaa !13
  %67 = load i64, ptr %5, align 8, !tbaa !9
  %68 = lshr i64 %67, 40
  %69 = trunc i64 %68 to i8
  %70 = load ptr, ptr %4, align 8, !tbaa !4
  %71 = getelementptr inbounds i8, ptr %70, i64 2
  store i8 %69, ptr %71, align 1, !tbaa !13
  %72 = load i64, ptr %5, align 8, !tbaa !9
  %73 = lshr i64 %72, 32
  %74 = trunc i64 %73 to i8
  %75 = load ptr, ptr %4, align 8, !tbaa !4
  %76 = getelementptr inbounds i8, ptr %75, i64 3
  store i8 %74, ptr %76, align 1, !tbaa !13
  %77 = load i64, ptr %5, align 8, !tbaa !9
  %78 = lshr i64 %77, 24
  %79 = trunc i64 %78 to i8
  %80 = load ptr, ptr %4, align 8, !tbaa !4
  %81 = getelementptr inbounds i8, ptr %80, i64 4
  store i8 %79, ptr %81, align 1, !tbaa !13
  %82 = load i64, ptr %5, align 8, !tbaa !9
  %83 = lshr i64 %82, 16
  %84 = trunc i64 %83 to i8
  %85 = load ptr, ptr %4, align 8, !tbaa !4
  %86 = getelementptr inbounds i8, ptr %85, i64 5
  store i8 %84, ptr %86, align 1, !tbaa !13
  %87 = load i64, ptr %5, align 8, !tbaa !9
  %88 = lshr i64 %87, 8
  %89 = trunc i64 %88 to i8
  %90 = load ptr, ptr %4, align 8, !tbaa !4
  %91 = getelementptr inbounds i8, ptr %90, i64 6
  store i8 %89, ptr %91, align 1, !tbaa !13
  %92 = load i64, ptr %5, align 8, !tbaa !9
  %93 = trunc i64 %92 to i8
  %94 = load ptr, ptr %4, align 8, !tbaa !4
  %95 = getelementptr inbounds i8, ptr %94, i64 7
  store i8 %93, ptr %95, align 1, !tbaa !13
  br label %96

96:                                               ; preds = %54, %32
  br label %97

97:                                               ; preds = %96, %17
  br label %98

98:                                               ; preds = %97, %9
  ret void
}

; Function Attrs: inlinehint nounwind uwtable
define internal i64 @ossl_quic_vlint_encode_len(i64 noundef %0) #1 {
  %2 = alloca i64, align 8
  %3 = alloca i64, align 8
  store i64 %0, ptr %3, align 8, !tbaa !9
  %4 = load i64, ptr %3, align 8, !tbaa !9
  %5 = icmp ult i64 %4, 64
  br i1 %5, label %6, label %7

6:                                                ; preds = %1
  store i64 1, ptr %2, align 8
  br label %20

7:                                                ; preds = %1
  %8 = load i64, ptr %3, align 8, !tbaa !9
  %9 = icmp ult i64 %8, 16384
  br i1 %9, label %10, label %11

10:                                               ; preds = %7
  store i64 2, ptr %2, align 8
  br label %20

11:                                               ; preds = %7
  %12 = load i64, ptr %3, align 8, !tbaa !9
  %13 = icmp ult i64 %12, 1073741824
  br i1 %13, label %14, label %15

14:                                               ; preds = %11
  store i64 4, ptr %2, align 8
  br label %20

15:                                               ; preds = %11
  %16 = load i64, ptr %3, align 8, !tbaa !9
  %17 = icmp ule i64 %16, 4611686018427387903
  br i1 %17, label %18, label %19

18:                                               ; preds = %15
  store i64 8, ptr %2, align 8
  br label %20

19:                                               ; preds = %15
  store i64 0, ptr %2, align 8
  br label %20

20:                                               ; preds = %19, %18, %14, %10, %6
  %21 = load i64, ptr %2, align 8
  ret i64 %21
}

; Function Attrs: nounwind uwtable
define dso_local void @ossl_quic_vlint_encode(ptr noundef %0, i64 noundef %1) #0 {
  %3 = alloca ptr, align 8
  %4 = alloca i64, align 8
  store ptr %0, ptr %3, align 8, !tbaa !4
  store i64 %1, ptr %4, align 8, !tbaa !9
  %5 = load ptr, ptr %3, align 8, !tbaa !4
  %6 = load i64, ptr %4, align 8, !tbaa !9
  %7 = load i64, ptr %4, align 8, !tbaa !9
  %8 = call i64 @ossl_quic_vlint_encode_len(i64 noundef %7)
  %9 = trunc i64 %8 to i32
  call void @ossl_quic_vlint_encode_n(ptr noundef %5, i64 noundef %6, i32 noundef %9)
  ret void
}