; Function Attrs: mustprogress nofree norecurse nosync nounwind willreturn memory(argmem: write) uwtable
define dso_local void @ossl_quic_vlint_encode(ptr noundef writeonly captures(none) initializes((0, 1)) %0, i64 noundef %1) local_unnamed_addr #0 {
  %3 = icmp ult i64 %1, 64
  br i1 %3, label %ossl_quic_vlint_encode_len.exit.thread, label %4

4:                                                ; preds = %2
  %5 = icmp ult i64 %1, 16384
  br i1 %5, label %ossl_quic_vlint_encode_len.exit.thread3, label %6

6:                                                ; preds = %4
  %7 = icmp ult i64 %1, 1073741824
  %8 = getelementptr inbounds nuw i8, ptr %0, i64 1
  %9 = getelementptr inbounds nuw i8, ptr %0, i64 2
  br i1 %7, label %ossl_quic_vlint_encode_len.exit.thread5, label %ossl_quic_vlint_encode_len.exit

ossl_quic_vlint_encode_len.exit.thread:           ; preds = %2
  %10 = trunc nuw i64 %1 to i8
  store i8 %10, ptr %0, align 1, !tbaa !4
  br label %ossl_quic_vlint_encode_n.exit

ossl_quic_vlint_encode_len.exit.thread3:          ; preds = %4
  %11 = lshr i64 %1, 8
  %12 = trunc nuw i64 %11 to i8
  %13 = or disjoint i8 %12, 64
  store i8 %13, ptr %0, align 1, !tbaa !4
  %14 = trunc i64 %1 to i8
  %15 = getelementptr inbounds nuw i8, ptr %0, i64 1
  store i8 %14, ptr %15, align 1, !tbaa !4
  br label %ossl_quic_vlint_encode_n.exit

ossl_quic_vlint_encode_len.exit.thread5:          ; preds = %6
  %16 = lshr i64 %1, 24
  %17 = trunc nuw i64 %16 to i8
  %18 = or disjoint i8 %17, -128
  store i8 %18, ptr %0, align 1, !tbaa !4
  %19 = lshr i64 %1, 16
  %20 = trunc i64 %19 to i8
  store i8 %20, ptr %8, align 1, !tbaa !4
  %21 = lshr i64 %1, 8
  %22 = trunc i64 %21 to i8
  store i8 %22, ptr %9, align 1, !tbaa !4
  %23 = trunc i64 %1 to i8
  %24 = getelementptr inbounds nuw i8, ptr %0, i64 3
  store i8 %23, ptr %24, align 1, !tbaa !4
  br label %ossl_quic_vlint_encode_n.exit

ossl_quic_vlint_encode_len.exit:                  ; preds = %6
  %25 = lshr i64 %1, 56
  %26 = trunc nuw i64 %25 to i8
  %27 = or i8 %26, -64
  store i8 %27, ptr %0, align 1, !tbaa !4
  %28 = lshr i64 %1, 48
  %29 = trunc i64 %28 to i8
  store i8 %29, ptr %8, align 1, !tbaa !4
  %30 = lshr i64 %1, 40
  %31 = trunc i64 %30 to i8
  store i8 %31, ptr %9, align 1, !tbaa !4
  %32 = lshr i64 %1, 32
  %33 = trunc i64 %32 to i8
  %34 = getelementptr inbounds nuw i8, ptr %0, i64 3
  store i8 %33, ptr %34, align 1, !tbaa !4
  %35 = lshr i64 %1, 24
  %36 = trunc i64 %35 to i8
  %37 = getelementptr inbounds nuw i8, ptr %0, i64 4
  store i8 %36, ptr %37, align 1, !tbaa !4
  %38 = lshr i64 %1, 16
  %39 = trunc i64 %38 to i8
  %40 = getelementptr inbounds nuw i8, ptr %0, i64 5
  store i8 %39, ptr %40, align 1, !tbaa !4
  %41 = lshr i64 %1, 8
  %42 = trunc i64 %41 to i8
  %43 = getelementptr inbounds nuw i8, ptr %0, i64 6
  store i8 %42, ptr %43, align 1, !tbaa !4
  %44 = trunc i64 %1 to i8
  %45 = getelementptr inbounds nuw i8, ptr %0, i64 7
  store i8 %44, ptr %45, align 1, !tbaa !4
  br label %ossl_quic_vlint_encode_n.exit

ossl_quic_vlint_encode_n.exit:                    ; preds = %ossl_quic_vlint_encode_len.exit.thread, %ossl_quic_vlint_encode_len.exit.thread3, %ossl_quic_vlint_encode_len.exit.thread5, %ossl_quic_vlint_encode_len.exit
  ret void
}